target datalayout = "e-m:e-p270:32:32-p271:32:32-p272:64:64-i64:64-i128:128-f80:128-n8:16:32:64-S128"
target triple = "x86_64-pc-linux-gnu"

%class.QString = type { %struct.QArrayDataPointer }
%struct.QArrayDataPointer = type { ptr, ptr, i64 }
%class.TrafficTableDialog = type { %class.WiresharkDialog.base, ptr, ptr }
%class.WiresharkDialog.base = type <{ %class.GeometryStateDialog, ptr, i8, [7 x i8], %class.QString, %class.QList, i32, i8 }>
%class.GeometryStateDialog = type { %class.QDialog, %class.QString, ptr }
%class.QDialog = type { %class.QWidget }
%class.QWidget = type { %class.QObject, %class.QPaintDevice.base, ptr }
%class.QObject = type { ptr, %class.QScopedPointer }
%class.QScopedPointer = type { ptr }
%class.QPaintDevice.base = type <{ ptr, i16 }>
%class.QList = type { %struct.QArrayDataPointer.0 }
%struct.QArrayDataPointer.0 = type { ptr, ptr, i64 }
%class.Ui_TrafficTableDialog = type { ptr, ptr, ptr, ptr, ptr, ptr, ptr, ptr, ptr, ptr, ptr, ptr, ptr, ptr, ptr }

; Function Attrs: mustprogress null_pointer_is_valid sspstrong uwtable
define void @_ZN18TrafficTableDialog17currentTabChangedEv(ptr noundef align 8 dereferenceable_or_null(160) %0) unnamed_addr #0 align 2 {
  %2 = alloca ptr, align 8
  %3 = alloca i8, align 1
  store ptr %0, ptr %2, align 8
  %4 = load ptr, ptr %2, align 8
  call void @llvm.lifetime.start.p0(i64 1, ptr %3) #16
  %5 = getelementptr inbounds nuw %class.TrafficTableDialog, ptr %4, i32 0, i32 1
  %6 = load ptr, ptr %5, align 8
  %7 = getelementptr inbounds nuw %class.Ui_TrafficTableDialog, ptr %6, i32 0, i32 13
  %8 = load ptr, ptr %7, align 8
  %9 = call noundef zeroext i1 @_ZN10TrafficTab17hasNameResolutionEi(ptr noundef align 8 dereferenceable_or_null(130) %8, i32 noundef -1)
  %10 = zext i1 %9 to i8
  store i8 %10, ptr %3, align 1
  %11 = getelementptr inbounds nuw %class.TrafficTableDialog, ptr %4, i32 0, i32 2
  %12 = load ptr, ptr %11, align 8
  %13 = getelementptr inbounds nuw %class.TrafficTableDialog, ptr %4, i32 0, i32 1
  %14 = load ptr, ptr %13, align 8
  %15 = getelementptr inbounds nuw %class.Ui_TrafficTableDialog, ptr %14, i32 0, i32 13
  %16 = load ptr, ptr %15, align 8
  %17 = getelementptr inbounds nuw %class.TrafficTableDialog, ptr %4, i32 0, i32 2
  %18 = load ptr, ptr %17, align 8
  %19 = call noundef ptr @_ZN10TrafficTab14createCopyMenuEP7QWidget(ptr noundef align 8 dereferenceable_or_null(130) %16, ptr noundef %18)
  call void @_ZN11QPushButton7setMenuEP5QMenu(ptr noundef align 8 dereferenceable_or_null(40) %12, ptr noundef %19)
  %20 = getelementptr inbounds nuw %class.TrafficTableDialog, ptr %4, i32 0, i32 1
  %21 = load ptr, ptr %20, align 8
  %22 = getelementptr inbounds nuw %class.Ui_TrafficTableDialog, ptr %21, i32 0, i32 6
  %23 = load ptr, ptr %22, align 8
  %24 = load i8, ptr %3, align 1, !range !6, !noundef !7
  %25 = trunc i8 %24 to i1
  call void @_ZN7QWidget10setEnabledEb(ptr noundef align 8 dereferenceable_or_null(40) %23, i1 noundef zeroext %25)
  %26 = load i8, ptr %3, align 1, !range !6, !noundef !7
  %27 = trunc i8 %26 to i1
  br i1 %27, label %37, label %28

28:                                               ; preds = %1
  %29 = getelementptr inbounds nuw %class.TrafficTableDialog, ptr %4, i32 0, i32 1
  %30 = load ptr, ptr %29, align 8
  %31 = getelementptr inbounds nuw %class.Ui_TrafficTableDialog, ptr %30, i32 0, i32 6
  %32 = load ptr, ptr %31, align 8
  call void @_ZN15QAbstractButton10setCheckedEb(ptr noundef align 8 dereferenceable_or_null(40) %32, i1 noundef zeroext false)
  %33 = getelementptr inbounds nuw %class.TrafficTableDialog, ptr %4, i32 0, i32 1
  %34 = load ptr, ptr %33, align 8
  %35 = getelementptr inbounds nuw %class.Ui_TrafficTableDialog, ptr %34, i32 0, i32 13
  %36 = load ptr, ptr %35, align 8
  call void @_ZN10TrafficTab17setNameResolutionEb(ptr noundef align 8 dereferenceable_or_null(130) %36, i1 noundef zeroext false)
  br label %37

37:                                               ; preds = %28, %1
  call void @llvm.lifetime.end.p0(i64 1, ptr %3) #16
  ret void
}