; Function Attrs: mustprogress null_pointer_is_valid sspstrong uwtable
define void @_ZN18TrafficTableDialog17currentTabChangedEv(ptr noundef readonly align 8 captures(none) dereferenceable_or_null(160) %0) unnamed_addr #0 align 2 {
  %2 = getelementptr inbounds nuw i8, ptr %0, i64 144
  %3 = load ptr, ptr %2, align 8
  %4 = getelementptr inbounds nuw i8, ptr %3, i64 104
  %5 = load ptr, ptr %4, align 8
  %6 = tail call noundef zeroext i1 @_ZN10TrafficTab17hasNameResolutionEi(ptr noundef align 8 dereferenceable_or_null(130) %5, i32 noundef -1)
  %7 = getelementptr inbounds nuw i8, ptr %0, i64 152
  %8 = load ptr, ptr %7, align 8
  %9 = load ptr, ptr %2, align 8
  %10 = getelementptr inbounds nuw i8, ptr %9, i64 104
  %11 = load ptr, ptr %10, align 8
  %12 = tail call noundef ptr @_ZN10TrafficTab14createCopyMenuEP7QWidget(ptr noundef align 8 dereferenceable_or_null(130) %11, ptr noundef %8)
  tail call void @_ZN11QPushButton7setMenuEP5QMenu(ptr noundef align 8 dereferenceable_or_null(40) %8, ptr noundef %12)
  %13 = load ptr, ptr %2, align 8
  %14 = getelementptr inbounds nuw i8, ptr %13, i64 48
  %15 = load ptr, ptr %14, align 8
  tail call void @_ZN7QWidget10setEnabledEb(ptr noundef align 8 dereferenceable_or_null(40) %15, i1 noundef zeroext %6)
  br i1 %6, label %23, label %16

16:                                               ; preds = %1
  %17 = load ptr, ptr %2, align 8
  %18 = getelementptr inbounds nuw i8, ptr %17, i64 48
  %19 = load ptr, ptr %18, align 8
  tail call void @_ZN15QAbstractButton10setCheckedEb(ptr noundef align 8 dereferenceable_or_null(40) %19, i1 noundef zeroext false)
  %20 = load ptr, ptr %2, align 8
  %21 = getelementptr inbounds nuw i8, ptr %20, i64 104
  %22 = load ptr, ptr %21, align 8
  tail call void @_ZN10TrafficTab17setNameResolutionEb(ptr noundef align 8 dereferenceable_or_null(130) %22, i1 noundef zeroext false)
  br label %23

23:                                               ; preds = %16, %1
  ret void
}